(dp0
S'sy'
p1
(lp2
S'\xe7\xbd\x91\xe7\x90\x83'
p3
aV\u6302\u80e1\u5200
p4
aV\u522e\u80e1\u5200
p5
asS'sry'
p6
(lp7
S'\xe7\xaf\xae\xe7\x90\x83'
p8
aS'\xe8\x80\xb3\xe6\x9c\xba'
p9
aV\u624b\u98ce\u7434
p10
aV\u624b\u98ce\u7434
p11
aV\u624b\u98ce\u7434
p12
aV\u624b\u98ce\u7434
p13
aV\u624b\u98ce\u7434
p14
aV\u624b\u98ce\u7434
p15
aV\u624b\u98ce\u7434
p16
aV\u624b\u98ce\u7434
p17
aV\u624b\u98ce\u7434
p18
aV\u624b\u98ce\u7434
p19
aV\u624b\u98ce\u7434
p20
aV\u624b\u98ce\u7434
p21
aV\u624b\u98ce\u7434
p22
aV\u624b\u98ce\u7434
p23
aV\u624b\u98ce\u7434
p24
aV\u624b\u98ce\u7434
p25
aV\u624b\u98ce\u7434
p26
aV\u624b\u98ce\u7434
p27
aV\u624b\u98ce\u7434
p28
aV\u624b\u98ce\u7434
p29
aV\u624b\u98ce\u7434
p30
aV\u624b\u98ce\u7434
p31
aV\u624b\u98ce\u7434
p32
aV\u624b\u98ce\u7434
p33
aV\u624b\u98ce\u7434
p34
aV\u624b\u98ce\u7434
p35
aV\u624b\u98ce\u7434
p36
aV\u624b\u98ce\u7434
p37
aV\u624b\u98ce\u7434
p38
aV\u624b\u98ce\u7434
p39
aV\u624b\u98ce\u7434
p40
aV\u624b\u98ce\u7434
p41
aV\u624b\u98ce\u7434
p42
aV\u624b\u98ce\u7434
p43
aV\u624b\u98ce\u7434
p44
aV\u624b\u98ce\u7434
p45
aV\u624b\u98ce\u7434
p46
aV\u624b\u98ce\u7434
p47
aV\u624b\u98ce\u7434
p48
aV\u624b\u98ce\u7434
p49
aV\u624b\u98ce\u7434
p50
aV\u624b\u98ce\u7434
p51
aV\u624b\u98ce\u7434
p52
aV\u624b\u98ce\u7434
p53
aV\u624b\u98ce\u7434
p54
aV\u624b\u98ce\u7434
p55
aV\u624b\u98ce\u7434
p56
aV\u624b\u98ce\u7434
p57
aV\u624b\u98ce\u7434
p58
aV\u624b\u98ce\u7434
p59
aV\u624b\u98ce\u7434
p60
aV\u624b\u98ce\u7434
p61
aV\u624b\u98ce\u7434
p62
aV\u624b\u98ce\u7434
p63
aV\u624b\u98ce\u7434
p64
aV\u624b\u98ce\u7434
p65
aV\u624b\u98ce\u7434
p66
aV\u624b\u98ce\u7434
p67
aV\u7b14\u8bb0\u672c
p68
aV\u7b14\u8bb0\u672c
p69
aV\u7b14\u8bb0\u672c
p70
aV\u7b14\u8bb0\u672c
p71
aVasdf
p72
aVbijiben
p73
aVtea
p74
aVtea
p75
aVtea
p76
aV \u96be\u5fd8\u624b\u98ce\u7434
p77
aV \u96be\u5fd8\u624b\u98ce\u7434
p78
aV \u96be\u5fd8\u624b\u98ce\u7434
p79
aV \u96be\u5fd8\u624b\u98ce\u7434
p80
aV \u96be\u5fd8\u624b\u98ce\u7434
p81
aV \u96be\u5fd8\u624b\u98ce\u7434
p82
aV \u96be\u5fd8\u624b\u98ce\u7434
p83
aV \u96be\u5fd8\u624b\u98ce\u7434
p84
aV \u96be\u5fd8\u624b\u98ce\u7434
p85
aV \u96be\u5fd8\u624b\u98ce\u7434
p86
aVtea
p87
aV \u96be\u5fd8\u624b\u98ce\u7434
p88
aV \u96be\u5fd8\u624b\u98ce\u7434
p89
aV \u96be\u5fd8\u624b\u98ce\u7434
p90
aVtea
p91
aVtea
p92
aVtea
p93
aVtea
p94
aVtea
p95
aVbijiben
p96
aVbijiben
p97
aVbijiben
p98
aVbijiben
p99
aV \u96be\u5fd8\u624b\u98ce\u7434
p100
aV \u96be\u5fd8\u624b\u98ce\u7434
p101
aV \u96be\u5fd8\u624b\u98ce\u7434
p102
aV \u96be\u5fd8\u624b\u98ce\u7434
p103
aVbijiben
p104
aVasdf
p105
aVbijiben
p106
aVbijiben
p107
aV \u96be\u5fd8\u624b\u98ce\u7434
p108
aV \u96be\u5fd8\u624b\u98ce\u7434
p109
aV \u96be\u5fd8\u624b\u98ce\u7434
p110
aV \u96be\u5fd8\u624b\u98ce\u7434
p111
aV \u96be\u5fd8\u624b\u98ce\u7434
p112
aV \u96be\u5fd8\u624b\u98ce\u7434
p113
aV \u96be\u5fd8\u624b\u98ce\u7434
p114
aVbijiben
p115
aVasdf
p116
aVbijiben
p117
aVasdf
p118
aVbijiben
p119
aVasdf
p120
aVbijiben
p121
aV \u96be\u5fd8\u624b\u98ce\u7434
p122
aV \u96be\u5fd8\u624b\u98ce\u7434
p123
aV \u96be\u5fd8\u624b\u98ce\u7434
p124
aV \u96be\u5fd8\u624b\u98ce\u7434
p125
aV \u96be\u5fd8\u624b\u98ce\u7434
p126
aVbijiben
p127
aV \u96be\u5fd8\u624b\u98ce\u7434
p128
aV \u96be\u5fd8\u624b\u98ce\u7434
p129
aV \u96be\u5fd8\u624b\u98ce\u7434
p130
aV \u96be\u5fd8\u624b\u98ce\u7434
p131
aV \u96be\u5fd8\u624b\u98ce\u7434
p132
aV \u96be\u5fd8\u624b\u98ce\u7434
p133
aV \u96be\u5fd8\u624b\u98ce\u7434
p134
aV \u96be\u5fd8\u624b\u98ce\u7434
p135
aV \u96be\u5fd8\u624b\u98ce\u7434
p136
aV \u96be\u5fd8\u624b\u98ce\u7434
p137
aV \u96be\u5fd8\u624b\u98ce\u7434
p138
aVbijiben
p139
aV \u96be\u5fd8\u624b\u98ce\u7434
p140
aV \u96be\u5fd8\u624b\u98ce\u7434
p141
aV \u96be\u5fd8\u624b\u98ce\u7434
p142
aVbijiben
p143
aV \u96be\u5fd8\u624b\u98ce\u7434
p144
aV \u96be\u5fd8\u624b\u98ce\u7434
p145
aV \u96be\u5fd8\u624b\u98ce\u7434
p146
aV \u96be\u5fd8\u624b\u98ce\u7434
p147
aV \u96be\u5fd8\u624b\u98ce\u7434
p148
aV \u96be\u5fd8\u624b\u98ce\u7434
p149
aV \u96be\u5fd8\u624b\u98ce\u7434
p150
aV \u96be\u5fd8\u624b\u98ce\u7434
p151
aV \u96be\u5fd8\u624b\u98ce\u7434
p152
aV \u96be\u5fd8\u624b\u98ce\u7434
p153
aV \u96be\u5fd8\u624b\u98ce\u7434
p154
aV\u522e\u80e1\u5200
p155
asS'hx'
p156
(lp157
S'\xe8\xb7\x91\xe6\xad\xa5'
p158
asS'tcd'
p159
(lp160
S'\xe6\x89\x8b\xe9\xa3\x8e\xe7\x90\xb4'
p161
aS'\xe8\xb6\xb3\xe7\x90\x83'
p162
aV\u624b\u98ce\u7434
p163
aV\u522e\u80e1\u5200
p164
aV\u624b\u673a
p165
aV\u624b\u673a
p166
aV\u522e\u80e1\u5200
p167
aV\u624b\u98ce\u7434
p168
aV\u624b\u98ce\u7434
p169
aV\u6ce2\u65af\u732b
p170
aV\u6ce2\u65af\u732b
p171
aV\u7b14\u8bb0\u672c
p172
aV\u624b\u5957
p173
aV\u5243\u987b\u5200
p174
aVdada
p175
aVda
p176
aVda
p177
aVda
p178
aVda
p179
aVdd
p180
aV \u96be\u5fd8\u624b\u98ce\u7434
p181
aV \u96be\u5fd8\u624b\u98ce\u7434
p182
aVbijiben
p183
aV \u96be\u5fd8\u624b\u98ce\u7434
p184
aVbijiben
p185
aV \u96be\u5fd8\u624b\u98ce\u7434
p186
aV \u96be\u5fd8\u624b\u98ce\u7434
p187
aV \u96be\u5fd8\u624b\u98ce\u7434
p188
aVbijiben
p189
aVasdf
p190
aVbijiben
p191
aVasdf
p192
aV\u522e\u80e1\u5200
p193
aV\u522e\u80e1\u5200
p194
aV\u522e\u80e1\u5200
p195
aV\u522e\u80e1\u5200
p196
aVdf
p197
aVdfsf
p198
aV\u522e\u80e1\u5200
p199
aV\u522e\u80e1\u5200
p200
aV\u522e\u80e1\u5200
p201
aV\u522e\u80e1\u5200
p202
aV\u522e\u80e1\u5200
p203
aV\u522e\u80e1\u5200
p204
aV\u522e\u80e1\u5200
p205
aV\u7b14\u8bb0\u672c
p206
aV\u952e\u76d8
p207
aV\u9f20\u6807
p208
aV\u9f20\u6807\u57ab
p209
aV\u9f20\u6807
p210
aVU\u76d8
p211
aV\u94a2\u7b14
p212
aV\u773c\u7ebf\u7b14
p213
aV\u773c\u7ebf\u7b14
p214
aV\u522e\u80e1\u5200
p215
aV\u9065\u63a7\u5668
p216
aV\u9065\u63a7\u5668
p217
aV\u9065\u63a7\u5668
p218
aV\u9065\u63a7\u5668
p219
aV\u82b1\u74f6
p220
aV\u6fb3\u6d32\u9752\u82f9
p221
aV\u9999\u8549
p222
aV\u7ea2\u9152
p223
aV\u53e3\u7ea2
p224
aV\u82cf\u5b81
p225
aV\u53ef\u4e50
p226
aV\u6c34\u58f6
p227
aV\u6c7d\u8f66
p228
aV\u624b\u673a
p229
aV\u534e\u4e3a
p230
aV\u624b\u8868
p231
aV\u82f9\u679c
p232
aV\u7b14\u8bb0\u672c
p233
aV\u786c\u76d8
p234
aV\u786c\u76d8
p235
aV\u786c\u76d8
p236
aV\u786c\u76d8
p237
aV\u786c\u76d8
p238
aV\u522e\u80e1\u5200
p239
aV\u522e\u80e1\u5200
p240
aV\u9f20\u6807\u57ab
p241
aV\u522e\u80e1\u5200
p242
aV\u786c\u76d8
p243
aV\u9f20\u6807\u57ab
p244
aV\u786c\u76d8
p245
asS'tc'
p246
(lp247
S'\xe6\x89\x8b\xe6\x9f\x84'
p248
aV\u7bee\u7403
p249
aV\u6ce2\u65af\u732b
p250
as.